target datalayout = "e-m:e-p270:32:32-p271:32:32-p272:64:64-i64:64-i128:128-f80:128-n8:16:32:64-S128"
target triple = "x86_64-pc-linux-gnu"

%"class.google::protobuf::internal::GeneratedExtensionFinder" = type { %"class.google::protobuf::internal::ExtensionFinder", ptr }
%"class.google::protobuf::internal::ExtensionFinder" = type { ptr }
%"struct.google::protobuf::internal::ExtensionInfo" = type { ptr, i32, i8, i8, i8, %union.anon, ptr }
%union.anon = type { %"struct.google::protobuf::internal::ExtensionInfo::EnumValidityCheck" }
%"struct.google::protobuf::internal::ExtensionInfo::EnumValidityCheck" = type { ptr, ptr }
%"class.std::__cxx11::basic_string" = type { %"struct.std::__cxx11::basic_string<char>::_Alloc_hider", i64, %union.anon.0 }
%"struct.std::__cxx11::basic_string<char>::_Alloc_hider" = type { ptr }
%union.anon.0 = type { i64, [8 x i8] }
%"class.google::protobuf::internal::InternalMetadata" = type { i64 }
%"struct.google::protobuf::internal::InternalMetadata::Container" = type { %"struct.google::protobuf::internal::InternalMetadata::ContainerBase", %"class.std::__cxx11::basic_string" }
%"struct.google::protobuf::internal::InternalMetadata::ContainerBase" = type { ptr }

; Function Attrs: alwaysinline mustprogress nounwind uwtable
define linkonce_odr hidden noundef zeroext i1 @_ZNK6google8protobuf8internal16InternalMetadata19HasUnknownFieldsTagEv(ptr noundef nonnull align 8 dereferenceable(8) %0) #17 comdat align 2 {
  %2 = alloca ptr, align 8
  store ptr %0, ptr %2, align 8, !tbaa !424
  %3 = load ptr, ptr %2, align 8
  %4 = getelementptr inbounds nuw %"class.google::protobuf::internal::InternalMetadata", ptr %3, i32 0, i32 0
  %5 = load i64, ptr %4, align 8, !tbaa !648
  %6 = and i64 %5, 1
  %7 = icmp ne i64 %6, 0
  ret i1 %7
}

; Function Attrs: mustprogress nounwind uwtable
define linkonce_odr hidden noundef ptr @_ZNK6google8protobuf8internal16InternalMetadata8PtrValueINS2_9ContainerINSt7__cxx1112basic_stringIcSt11char_traitsIcESaIcEEEEEEEPT_v(ptr noundef nonnull align 8 dereferenceable(8) %0) #4 comdat align 2 {
  %2 = alloca ptr, align 8
  store ptr %0, ptr %2, align 8, !tbaa !424
  %3 = load ptr, ptr %2, align 8
  %4 = getelementptr inbounds nuw %"class.google::protobuf::internal::InternalMetadata", ptr %3, i32 0, i32 0
  %5 = load i64, ptr %4, align 8, !tbaa !648
  %6 = and i64 %5, -4
  %7 = inttoptr i64 %6 to ptr
  ret ptr %7
}

; Function Attrs: alwaysinline mustprogress uwtable
define linkonce_odr hidden noundef zeroext i1 @_ZNK6google8protobuf8internal16InternalMetadata19have_unknown_fieldsEv(ptr noundef nonnull align 8 dereferenceable(8) %0) #9 comdat align 2 {
  %2 = alloca ptr, align 8
  store ptr %0, ptr %2, align 8, !tbaa !424
  %3 = load ptr, ptr %2, align 8
  %4 = call noundef zeroext i1 @_ZNK6google8protobuf8internal16InternalMetadata19HasUnknownFieldsTagEv(ptr noundef nonnull align 8 dereferenceable(8) %3)
  ret i1 %4
}

; Function Attrs: inlinehint mustprogress nounwind uwtable
define linkonce_odr hidden void @_ZN6google8protobuf8internal15ExtensionFinderC2Ev(ptr noundef nonnull align 8 dereferenceable(8) %0) unnamed_addr #14 comdat align 2 {
  %2 = alloca ptr, align 8
  store ptr %0, ptr %2, align 8, !tbaa !3
  %3 = load ptr, ptr %2, align 8
  store ptr getelementptr inbounds inrange(-16, 24) ({ [5 x ptr] }, ptr @_ZTVN6google8protobuf8internal15ExtensionFinderE, i32 0, i32 0, i32 2), ptr %3, align 8, !tbaa !37
  ret void
}

; Function Attrs: mustprogress nounwind uwtable
define hidden void @_ZN6google8protobuf8internal15ExtensionFinderD2Ev(ptr noundef nonnull align 8 dereferenceable(8) %0) unnamed_addr #4 align 2 {
  %2 = alloca ptr, align 8
  store ptr %0, ptr %2, align 8, !tbaa !3
  ret void
}

; Function Attrs: alwaysinline mustprogress uwtable
define linkonce_odr hidden noundef ptr @_ZN6google8protobuf8internal16InternalMetadata22mutable_unknown_fieldsINSt7__cxx1112basic_stringIcSt11char_traitsIcESaIcEEEEEPT_v(ptr noundef nonnull align 8 dereferenceable(8) %0) #9 comdat align 2 {
  %2 = alloca ptr, align 8
  %3 = alloca ptr, align 8
  store ptr %0, ptr %3, align 8, !tbaa !424
  %4 = load ptr, ptr %3, align 8
  %5 = call noundef zeroext i1 @_ZNK6google8protobuf8internal16InternalMetadata19have_unknown_fieldsEv(ptr noundef nonnull align 8 dereferenceable(8) %4)
  %6 = zext i1 %5 to i64
  %7 = call i64 @llvm.expect.i64(i64 %6, i64 1)
  %8 = icmp ne i64 %7, 0
  br i1 %8, label %9, label %12

9:                                                ; preds = %1
  %10 = call noundef ptr @_ZNK6google8protobuf8internal16InternalMetadata8PtrValueINS2_9ContainerINSt7__cxx1112basic_stringIcSt11char_traitsIcESaIcEEEEEEEPT_v(ptr noundef nonnull align 8 dereferenceable(8) %4)
  %11 = getelementptr inbounds nuw %"struct.google::protobuf::internal::InternalMetadata::Container", ptr %10, i32 0, i32 1
  store ptr %11, ptr %2, align 8
  br label %14

12:                                               ; preds = %1
  %13 = call noundef ptr @_ZN6google8protobuf8internal16InternalMetadata27mutable_unknown_fields_slowINSt7__cxx1112basic_stringIcSt11char_traitsIcESaIcEEEEEPT_v(ptr noundef nonnull align 8 dereferenceable(8) %4)
  store ptr %13, ptr %2, align 8
  br label %14

14:                                               ; preds = %12, %9
  %15 = load ptr, ptr %2, align 8
  ret ptr %15
}

; Function Attrs: mustprogress nounwind uwtable
define linkonce_odr hidden void @_ZN6google8protobuf8internal13ExtensionInfoC2Ev(ptr noundef nonnull align 8 dereferenceable(40) %0) unnamed_addr #4 comdat align 2 {
  %2 = alloca ptr, align 8
  store ptr %0, ptr %2, align 8, !tbaa !12
  %3 = load ptr, ptr %2, align 8
  %4 = getelementptr inbounds nuw %"struct.google::protobuf::internal::ExtensionInfo", ptr %3, i32 0, i32 0
  store ptr null, ptr %4, align 8, !tbaa !27
  %5 = getelementptr inbounds nuw %"struct.google::protobuf::internal::ExtensionInfo", ptr %3, i32 0, i32 1
  store i32 0, ptr %5, align 8, !tbaa !29
  %6 = getelementptr inbounds nuw %"struct.google::protobuf::internal::ExtensionInfo", ptr %3, i32 0, i32 2
  store i8 0, ptr %6, align 4, !tbaa !32
  %7 = getelementptr inbounds nuw %"struct.google::protobuf::internal::ExtensionInfo", ptr %3, i32 0, i32 3
  store i8 0, ptr %7, align 1, !tbaa !33
  %8 = getelementptr inbounds nuw %"struct.google::protobuf::internal::ExtensionInfo", ptr %3, i32 0, i32 4
  store i8 0, ptr %8, align 2, !tbaa !34
  %9 = getelementptr inbounds nuw %"struct.google::protobuf::internal::ExtensionInfo", ptr %3, i32 0, i32 5
  call void @llvm.memset.p0.i64(ptr align 8 %9, i8 0, i64 16, i1 false)
  %10 = getelementptr inbounds nuw %"struct.google::protobuf::internal::ExtensionInfo", ptr %3, i32 0, i32 6
  store ptr null, ptr %10, align 8, !tbaa !35
  ret void
}

; Function Attrs: mustprogress nounwind uwtable
define linkonce_odr hidden void @_ZN6google8protobuf8internal24GeneratedExtensionFinderC2EPKNS0_11MessageLiteE(ptr noundef nonnull align 8 dereferenceable(16) %0, ptr noundef %1) unnamed_addr #4 comdat align 2 {
  %3 = alloca ptr, align 8
  %4 = alloca ptr, align 8
  store ptr %0, ptr %3, align 8, !tbaa !8
  store ptr %1, ptr %4, align 8, !tbaa !19
  %5 = load ptr, ptr %3, align 8
  call void @_ZN6google8protobuf8internal15ExtensionFinderC2Ev(ptr noundef nonnull align 8 dereferenceable(8) %5) #3
  store ptr getelementptr inbounds inrange(-16, 24) ({ [5 x ptr] }, ptr @_ZTVN6google8protobuf8internal24GeneratedExtensionFinderE, i32 0, i32 0, i32 2), ptr %5, align 8, !tbaa !37
  %6 = getelementptr inbounds nuw %"class.google::protobuf::internal::GeneratedExtensionFinder", ptr %5, i32 0, i32 1
  %7 = load ptr, ptr %4, align 8, !tbaa !19
  store ptr %7, ptr %6, align 8, !tbaa !14
  ret void
}

; Function Attrs: mustprogress uwtable
define hidden noundef ptr @_ZN6google8protobuf8internal12ExtensionSet10ParseFieldEmPKcPKNS0_11MessageLiteEPNS1_16InternalMetadataEPNS1_12ParseContextE(ptr noundef nonnull align 8 dereferenceable(24) %0, i64 noundef %1, ptr noundef %2, ptr noundef %3, ptr noundef %4, ptr noundef %5) #6 align 2 personality ptr @__gxx_personality_v0 {
  %7 = alloca ptr, align 8
  %8 = alloca ptr, align 8
  %9 = alloca i64, align 8
  %10 = alloca ptr, align 8
  %11 = alloca ptr, align 8
  %12 = alloca ptr, align 8
  %13 = alloca ptr, align 8
  %14 = alloca %"class.google::protobuf::internal::GeneratedExtensionFinder", align 8
  %15 = alloca i32, align 4
  %16 = alloca i8, align 1
  %17 = alloca %"struct.google::protobuf::internal::ExtensionInfo", align 8
  %18 = alloca ptr, align 8
  %19 = alloca i32, align 4
  %20 = alloca i32, align 4
  store ptr %0, ptr %8, align 8, !tbaa !43
  store i64 %1, ptr %9, align 8, !tbaa !52
  store ptr %2, ptr %10, align 8, !tbaa !422
  store ptr %3, ptr %11, align 8, !tbaa !19
  store ptr %4, ptr %12, align 8, !tbaa !424
  store ptr %5, ptr %13, align 8, !tbaa !426
  %21 = load ptr, ptr %8, align 8
  call void @llvm.lifetime.start.p0(i64 16, ptr %14) #3
  %22 = load ptr, ptr %11, align 8, !tbaa !19
  call void @_ZN6google8protobuf8internal24GeneratedExtensionFinderC2EPKNS0_11MessageLiteE(ptr noundef nonnull align 8 dereferenceable(16) %14, ptr noundef %22)
  call void @llvm.lifetime.start.p0(i64 4, ptr %15) #3
  %23 = load i64, ptr %9, align 8, !tbaa !52
  %24 = lshr i64 %23, 3
  %25 = trunc i64 %24 to i32
  store i32 %25, ptr %15, align 4, !tbaa !10
  call void @llvm.lifetime.start.p0(i64 1, ptr %16) #3
  call void @llvm.lifetime.start.p0(i64 40, ptr %17) #3
  invoke void @_ZN6google8protobuf8internal13ExtensionInfoC2Ev(ptr noundef nonnull align 8 dereferenceable(40) %17)
          to label %26 unwind label %43

26:                                               ; preds = %6
  %27 = load i64, ptr %9, align 8, !tbaa !52
  %28 = and i64 %27, 7
  %29 = trunc i64 %28 to i32
  %30 = load i32, ptr %15, align 4, !tbaa !10
  %31 = invoke noundef zeroext i1 @_ZNK6google8protobuf8internal12ExtensionSet32FindExtensionInfoFromFieldNumberEiiPNS1_15ExtensionFinderEPNS1_13ExtensionInfoEPb(ptr noundef nonnull align 8 dereferenceable(24) %21, i32 noundef %29, i32 noundef %30, ptr noundef %14, ptr noundef %17, ptr noundef %16)
          to label %32 unwind label %43

32:                                               ; preds = %26
  br i1 %31, label %47, label %33

33:                                               ; preds = %32
  %34 = load i64, ptr %9, align 8, !tbaa !52
  %35 = trunc i64 %34 to i32
  %36 = load ptr, ptr %12, align 8, !tbaa !424
  %37 = invoke noundef ptr @_ZN6google8protobuf8internal16InternalMetadata22mutable_unknown_fieldsINSt7__cxx1112basic_stringIcSt11char_traitsIcESaIcEEEEEPT_v(ptr noundef nonnull align 8 dereferenceable(8) %36)
          to label %38 unwind label %43

38:                                               ; preds = %33
  %39 = load ptr, ptr %10, align 8, !tbaa !422
  %40 = load ptr, ptr %13, align 8, !tbaa !426
  %41 = invoke noundef ptr @_ZN6google8protobuf8internal17UnknownFieldParseEjPNSt7__cxx1112basic_stringIcSt11char_traitsIcESaIcEEEPKcPNS1_12ParseContextE(i32 noundef %35, ptr noundef %37, ptr noundef %39, ptr noundef %40)
          to label %42 unwind label %43

42:                                               ; preds = %38
  store ptr %41, ptr %7, align 8
  store i32 1, ptr %20, align 4
  br label %56

43:                                               ; preds = %47, %38, %33, %26, %6
  %44 = landingpad { ptr, i32 }
          cleanup
  %45 = extractvalue { ptr, i32 } %44, 0
  store ptr %45, ptr %18, align 8
  %46 = extractvalue { ptr, i32 } %44, 1
  store i32 %46, ptr %19, align 4
  call void @llvm.lifetime.end.p0(i64 40, ptr %17) #3
  call void @llvm.lifetime.end.p0(i64 1, ptr %16) #3
  call void @llvm.lifetime.end.p0(i64 4, ptr %15) #3
  call void @_ZN6google8protobuf8internal15ExtensionFinderD2Ev(ptr noundef nonnull align 8 dereferenceable(16) %14) #3
  call void @llvm.lifetime.end.p0(i64 16, ptr %14) #3
  br label %58

47:                                               ; preds = %32
  %48 = load i32, ptr %15, align 4, !tbaa !10
  %49 = load i8, ptr %16, align 1, !tbaa !21, !range !30, !noundef !31
  %50 = trunc i8 %49 to i1
  %51 = load ptr, ptr %12, align 8, !tbaa !424
  %52 = load ptr, ptr %10, align 8, !tbaa !422
  %53 = load ptr, ptr %13, align 8, !tbaa !426
  %54 = invoke noundef ptr @_ZN6google8protobuf8internal12ExtensionSet27ParseFieldWithExtensionInfoINSt7__cxx1112basic_stringIcSt11char_traitsIcESaIcEEEEEPKcibRKNS1_13ExtensionInfoEPNS1_16InternalMetadataESB_PNS1_12ParseContextE(ptr noundef nonnull align 8 dereferenceable(24) %21, i32 noundef %48, i1 noundef zeroext %50, ptr noundef nonnull align 8 dereferenceable(40) %17, ptr noundef %51, ptr noundef %52, ptr noundef %53)
          to label %55 unwind label %43

55:                                               ; preds = %47
  store ptr %54, ptr %7, align 8
  store i32 1, ptr %20, align 4
  br label %56

56:                                               ; preds = %55, %42
  call void @llvm.lifetime.end.p0(i64 40, ptr %17) #3
  call void @llvm.lifetime.end.p0(i64 1, ptr %16) #3
  call void @llvm.lifetime.end.p0(i64 4, ptr %15) #3
  call void @_ZN6google8protobuf8internal15ExtensionFinderD2Ev(ptr noundef nonnull align 8 dereferenceable(16) %14) #3
  call void @llvm.lifetime.end.p0(i64 16, ptr %14) #3
  %57 = load ptr, ptr %7, align 8
  ret ptr %57

58:                                               ; preds = %43
  %59 = load ptr, ptr %18, align 8
  %60 = load i32, ptr %19, align 4
  %61 = insertvalue { ptr, i32 } poison, ptr %59, 0
  %62 = insertvalue { ptr, i32 } %61, i32 %60, 1
  resume { ptr, i32 } %62
}