; Function Attrs: mustprogress uwtable
define hidden noundef ptr @_ZN6google8protobuf8internal12ExtensionSet10ParseFieldEmPKcPKNS0_11MessageLiteEPNS1_16InternalMetadataEPNS1_12ParseContextE(ptr noundef nonnull align 8 dereferenceable(24) %0, i64 noundef %1, ptr noundef %2, ptr noundef %3, ptr noundef %4, ptr noundef %5) local_unnamed_addr #8 align 2 personality ptr @__gxx_personality_v0 {
  %7 = alloca %"class.google::protobuf::internal::GeneratedExtensionFinder", align 8
  %8 = alloca i8, align 1
  %9 = alloca %"struct.google::protobuf::internal::ExtensionInfo", align 8
  call void @llvm.lifetime.start.p0(i64 16, ptr nonnull %7) #30
  store ptr getelementptr inbounds nuw inrange(-16, 24) (i8, ptr @_ZTVN6google8protobuf8internal24GeneratedExtensionFinderE, i64 16), ptr %7, align 8, !tbaa !54
  %10 = getelementptr inbounds nuw i8, ptr %7, i64 8
  store ptr %3, ptr %10, align 8, !tbaa !3
  %11 = lshr i64 %1, 3
  %12 = trunc i64 %11 to i32
  call void @llvm.lifetime.start.p0(i64 1, ptr nonnull %8) #30
  call void @llvm.lifetime.start.p0(i64 40, ptr nonnull %9) #30
  %13 = getelementptr inbounds nuw i8, ptr %9, i64 16
  call void @llvm.memset.p0.i64(ptr noundef nonnull align 8 dereferenceable(40) %9, i8 0, i64 15, i1 false)
  call void @llvm.memset.p0.i64(ptr noundef nonnull align 8 dereferenceable(24) %13, i8 0, i64 24, i1 false)
  %14 = trunc i64 %1 to i32
  %15 = and i32 %14, 7
  %16 = call noundef zeroext i1 @_ZNK6google8protobuf8internal12ExtensionSet32FindExtensionInfoFromFieldNumberEiiPNS1_15ExtensionFinderEPNS1_13ExtensionInfoEPb(ptr nonnull align 8 poison, i32 noundef %15, i32 noundef %12, ptr noundef nonnull %7, ptr noundef nonnull %9, ptr noundef nonnull %8)
  br i1 %16, label %26, label %.noexc

.noexc:                                           ; preds = %6
  %17 = load i64, ptr %4, align 8, !tbaa !138
  %18 = and i64 %17, 1
  %.not = icmp eq i64 %18, 0
  br i1 %.not, label %23, label %19, !prof !50

19:                                               ; preds = %.noexc
  %20 = and i64 %17, -4
  %21 = inttoptr i64 %20 to ptr
  %22 = getelementptr inbounds nuw i8, ptr %21, i64 8
  br label %_ZN6google8protobuf8internal16InternalMetadata22mutable_unknown_fieldsINSt7__cxx1112basic_stringIcSt11char_traitsIcESaIcEEEEEPT_v.exit

23:                                               ; preds = %.noexc
  %24 = call noundef ptr @_ZN6google8protobuf8internal16InternalMetadata27mutable_unknown_fields_slowINSt7__cxx1112basic_stringIcSt11char_traitsIcESaIcEEEEEPT_v(ptr noundef nonnull align 8 dereferenceable(8) %4)
  br label %_ZN6google8protobuf8internal16InternalMetadata22mutable_unknown_fieldsINSt7__cxx1112basic_stringIcSt11char_traitsIcESaIcEEEEEPT_v.exit

_ZN6google8protobuf8internal16InternalMetadata22mutable_unknown_fieldsINSt7__cxx1112basic_stringIcSt11char_traitsIcESaIcEEEEEPT_v.exit: ; preds = %23, %19
  %.0.i = phi ptr [ %22, %19 ], [ %24, %23 ]
  %25 = call noundef ptr @_ZN6google8protobuf8internal17UnknownFieldParseEjPNSt7__cxx1112basic_stringIcSt11char_traitsIcESaIcEEEPKcPNS1_12ParseContextE(i32 noundef %14, ptr noundef %.0.i, ptr noundef %2, ptr noundef %5)
  br label %30

26:                                               ; preds = %6
  %27 = load i8, ptr %8, align 1, !tbaa !39, !range !104, !noundef !80
  %28 = trunc nuw i8 %27 to i1
  %29 = call noundef ptr @_ZN6google8protobuf8internal12ExtensionSet27ParseFieldWithExtensionInfoINSt7__cxx1112basic_stringIcSt11char_traitsIcESaIcEEEEEPKcibRKNS1_13ExtensionInfoEPNS1_16InternalMetadataESB_PNS1_12ParseContextE(ptr noundef nonnull align 8 dereferenceable(24) %0, i32 noundef %12, i1 noundef zeroext %28, ptr noundef nonnull align 8 dereferenceable(40) %9, ptr noundef %4, ptr noundef %2, ptr noundef %5)
  br label %30

30:                                               ; preds = %_ZN6google8protobuf8internal16InternalMetadata22mutable_unknown_fieldsINSt7__cxx1112basic_stringIcSt11char_traitsIcESaIcEEEEEPT_v.exit, %26
  %.0 = phi ptr [ %25, %_ZN6google8protobuf8internal16InternalMetadata22mutable_unknown_fieldsINSt7__cxx1112basic_stringIcSt11char_traitsIcESaIcEEEEEPT_v.exit ], [ %29, %26 ]
  call void @llvm.lifetime.end.p0(i64 40, ptr nonnull %9) #30
  call void @llvm.lifetime.end.p0(i64 1, ptr nonnull %8) #30
  call void @llvm.lifetime.end.p0(i64 16, ptr nonnull %7) #30
  ret ptr %.0
}